target datalayout = "e-m:e-p270:32:32-p271:32:32-p272:64:64-i64:64-i128:128-f80:128-n8:16:32:64-S128"
target triple = "x86_64-pc-linux-gnu"

%struct._clusterNode = type { i64, [40 x i8], [40 x i8], i32, i64, [2048 x i8], ptr, i32, i32, i32, ptr, ptr, i64, i64, i64, i64, i64, i64, i64, i64, i64, [46 x i8], ptr, ptr, i32, i32, i32, ptr, ptr, ptr }
%struct.sdshdr8 = type { i8, i8, i8, [0 x i8] }
%struct.sdshdr16 = type <{ i16, i16, i8, [0 x i8] }>
%struct.sdshdr32 = type <{ i32, i32, i8, [0 x i8] }>
%struct.sdshdr64 = type <{ i64, i64, i8, [0 x i8] }>

; Function Attrs: inlinehint nounwind uwtable
define internal i64 @sdslen(ptr noundef %0) #5 {
  %2 = alloca i64, align 8
  %3 = alloca ptr, align 8
  %4 = alloca i8, align 1
  %5 = alloca i32, align 4
  store ptr %0, ptr %3, align 8, !tbaa !52
  call void @llvm.lifetime.start.p0(i64 1, ptr %4) #16
  %6 = load ptr, ptr %3, align 8, !tbaa !52
  %7 = getelementptr inbounds i8, ptr %6, i64 -1
  %8 = load i8, ptr %7, align 1, !tbaa !54
  store i8 %8, ptr %4, align 1, !tbaa !54
  %9 = load i8, ptr %4, align 1, !tbaa !54
  %10 = zext i8 %9 to i32
  %11 = and i32 %10, 7
  switch i32 %11, label %40 [
    i32 0, label %12
    i32 1, label %17
    i32 2, label %23
    i32 3, label %29
    i32 4, label %35
  ]

12:                                               ; preds = %1
  %13 = load i8, ptr %4, align 1, !tbaa !54
  %14 = zext i8 %13 to i32
  %15 = ashr i32 %14, 3
  %16 = sext i32 %15 to i64
  store i64 %16, ptr %2, align 8
  store i32 1, ptr %5, align 4
  br label %41

17:                                               ; preds = %1
  %18 = load ptr, ptr %3, align 8, !tbaa !52
  %19 = getelementptr inbounds i8, ptr %18, i64 -3
  %20 = getelementptr inbounds nuw %struct.sdshdr8, ptr %19, i32 0, i32 0
  %21 = load i8, ptr %20, align 1, !tbaa !54
  %22 = zext i8 %21 to i64
  store i64 %22, ptr %2, align 8
  store i32 1, ptr %5, align 4
  br label %41

23:                                               ; preds = %1
  %24 = load ptr, ptr %3, align 8, !tbaa !52
  %25 = getelementptr inbounds i8, ptr %24, i64 -5
  %26 = getelementptr inbounds nuw %struct.sdshdr16, ptr %25, i32 0, i32 0
  %27 = load i16, ptr %26, align 1, !tbaa !63
  %28 = zext i16 %27 to i64
  store i64 %28, ptr %2, align 8
  store i32 1, ptr %5, align 4
  br label %41

29:                                               ; preds = %1
  %30 = load ptr, ptr %3, align 8, !tbaa !52
  %31 = getelementptr inbounds i8, ptr %30, i64 -9
  %32 = getelementptr inbounds nuw %struct.sdshdr32, ptr %31, i32 0, i32 0
  %33 = load i32, ptr %32, align 1, !tbaa !46
  %34 = zext i32 %33 to i64
  store i64 %34, ptr %2, align 8
  store i32 1, ptr %5, align 4
  br label %41

35:                                               ; preds = %1
  %36 = load ptr, ptr %3, align 8, !tbaa !52
  %37 = getelementptr inbounds i8, ptr %36, i64 -17
  %38 = getelementptr inbounds nuw %struct.sdshdr64, ptr %37, i32 0, i32 0
  %39 = load i64, ptr %38, align 1, !tbaa !65
  store i64 %39, ptr %2, align 8
  store i32 1, ptr %5, align 4
  br label %41

40:                                               ; preds = %1
  store i64 0, ptr %2, align 8
  store i32 1, ptr %5, align 4
  br label %41

41:                                               ; preds = %40, %35, %29, %23, %17, %12
  call void @llvm.lifetime.end.p0(i64 1, ptr %4) #16
  %42 = load i64, ptr %2, align 8
  ret i64 %42
}

; Function Attrs: nounwind uwtable
define dso_local i32 @auxHumanNodenameSetter(ptr noundef %0, ptr noundef %1, i32 noundef %2) #0 {
  %4 = alloca i32, align 4
  %5 = alloca ptr, align 8
  %6 = alloca ptr, align 8
  %7 = alloca i32, align 4
  store ptr %0, ptr %5, align 8, !tbaa !5
  store ptr %1, ptr %6, align 8, !tbaa !47
  store i32 %2, ptr %7, align 4, !tbaa !46
  %8 = load ptr, ptr %5, align 8, !tbaa !5
  %9 = icmp ne ptr %8, null
  br i1 %9, label %10, label %20

10:                                               ; preds = %3
  %11 = load ptr, ptr %6, align 8, !tbaa !47
  %12 = load ptr, ptr %5, align 8, !tbaa !5
  %13 = getelementptr inbounds nuw %struct._clusterNode, ptr %12, i32 0, i32 23
  %14 = load ptr, ptr %13, align 8, !tbaa !53
  %15 = load i32, ptr %7, align 4, !tbaa !46
  %16 = sext i32 %15 to i64
  %17 = call i32 @strncmp(ptr noundef %11, ptr noundef %14, i64 noundef %16) #17
  %18 = icmp ne i32 %17, 0
  br i1 %18, label %20, label %19

19:                                               ; preds = %10
  store i32 0, ptr %4, align 4
  br label %54

20:                                               ; preds = %10, %3
  %21 = load ptr, ptr %5, align 8, !tbaa !5
  %22 = icmp ne ptr %21, null
  br i1 %22, label %27, label %23

23:                                               ; preds = %20
  %24 = load i32, ptr %7, align 4, !tbaa !46
  %25 = icmp eq i32 %24, 0
  br i1 %25, label %26, label %27

26:                                               ; preds = %23
  store i32 0, ptr %4, align 4
  br label %54

27:                                               ; preds = %23, %20
  br label %28

28:                                               ; preds = %27
  %29 = load ptr, ptr %5, align 8, !tbaa !5
  %30 = icmp ne ptr %29, null
  br i1 %30, label %31, label %41

31:                                               ; preds = %28
  %32 = load ptr, ptr %5, align 8, !tbaa !5
  %33 = getelementptr inbounds nuw %struct._clusterNode, ptr %32, i32 0, i32 23
  %34 = load ptr, ptr %33, align 8, !tbaa !53
  %35 = load ptr, ptr %6, align 8, !tbaa !47
  %36 = load i32, ptr %7, align 4, !tbaa !46
  %37 = sext i32 %36 to i64
  %38 = call ptr @sdscpylen(ptr noundef %34, ptr noundef %35, i64 noundef %37)
  %39 = load ptr, ptr %5, align 8, !tbaa !5
  %40 = getelementptr inbounds nuw %struct._clusterNode, ptr %39, i32 0, i32 23
  store ptr %38, ptr %40, align 8, !tbaa !53
  br label %53

41:                                               ; preds = %28
  %42 = load ptr, ptr %5, align 8, !tbaa !5
  %43 = getelementptr inbounds nuw %struct._clusterNode, ptr %42, i32 0, i32 23
  %44 = load ptr, ptr %43, align 8, !tbaa !53
  %45 = call i64 @sdslen(ptr noundef %44)
  %46 = icmp ne i64 %45, 0
  br i1 %46, label %47, label %51

47:                                               ; preds = %41
  %48 = load ptr, ptr %5, align 8, !tbaa !5
  %49 = getelementptr inbounds nuw %struct._clusterNode, ptr %48, i32 0, i32 23
  %50 = load ptr, ptr %49, align 8, !tbaa !53
  call void @sdsclear(ptr noundef %50)
  br label %52

51:                                               ; preds = %41
  store i32 -1, ptr %4, align 4
  br label %54

52:                                               ; preds = %47
  br label %53

53:                                               ; preds = %52, %31
  store i32 0, ptr %4, align 4
  br label %54

54:                                               ; preds = %53, %51, %26, %19
  %55 = load i32, ptr %4, align 4
  ret i32 %55
}