; Function Attrs: nounwind uwtable
define dso_local range(i32 -1, 1) i32 @auxHumanNodenameSetter(ptr noundef captures(address_is_null) %0, ptr noundef %1, i32 noundef %2) #3 {
  %.not = icmp eq ptr %0, null
  br i1 %.not, label %9, label %4

4:                                                ; preds = %3
  %5 = getelementptr inbounds nuw i8, ptr %0, i64 2320
  %6 = load ptr, ptr %5, align 8, !tbaa !49
  %7 = sext i32 %2 to i64
  %8 = tail call i32 @strncmp(ptr noundef %1, ptr noundef %6, i64 noundef %7) #34
  %.not15 = icmp eq i32 %8, 0
  br i1 %.not15, label %sdslen.exit.thread, label %11

9:                                                ; preds = %3
  %10 = icmp eq i32 %2, 0
  br i1 %10, label %sdslen.exit.thread, label %13

11:                                               ; preds = %4
  %12 = tail call ptr @sdscpylen(ptr noundef %6, ptr noundef %1, i64 noundef %7) #33
  store ptr %12, ptr %5, align 8, !tbaa !49
  br label %sdslen.exit.thread

13:                                               ; preds = %9
  %14 = load ptr, ptr inttoptr (i64 2320 to ptr), align 16, !tbaa !49
  %15 = getelementptr inbounds i8, ptr %14, i64 -1
  %16 = load i8, ptr %15, align 1, !tbaa !50
  %17 = zext i8 %16 to i32
  %18 = and i32 %17, 7
  switch i32 %18, label %sdslen.exit.thread [
    i32 0, label %19
    i32 1, label %22
    i32 2, label %26
    i32 3, label %30
    i32 4, label %34
  ]

19:                                               ; preds = %13
  %20 = lshr i32 %17, 3
  %21 = zext nneg i32 %20 to i64
  br label %sdslen.exit

22:                                               ; preds = %13
  %23 = getelementptr inbounds i8, ptr %14, i64 -3
  %24 = load i8, ptr %23, align 1, !tbaa !50
  %25 = zext i8 %24 to i64
  br label %sdslen.exit

26:                                               ; preds = %13
  %27 = getelementptr inbounds i8, ptr %14, i64 -5
  %28 = load i16, ptr %27, align 1, !tbaa !51
  %29 = zext i16 %28 to i64
  br label %sdslen.exit

30:                                               ; preds = %13
  %31 = getelementptr inbounds i8, ptr %14, i64 -9
  %32 = load i32, ptr %31, align 1, !tbaa !38
  %33 = zext i32 %32 to i64
  br label %sdslen.exit

34:                                               ; preds = %13
  %35 = getelementptr inbounds i8, ptr %14, i64 -17
  %36 = load i64, ptr %35, align 1, !tbaa !53
  br label %sdslen.exit

sdslen.exit:                                      ; preds = %19, %22, %26, %30, %34
  %.0.i = phi i64 [ %36, %34 ], [ %33, %30 ], [ %29, %26 ], [ %25, %22 ], [ %21, %19 ]
  %.not16 = icmp eq i64 %.0.i, 0
  br i1 %.not16, label %sdslen.exit.thread, label %37

37:                                               ; preds = %sdslen.exit
  tail call void @sdsclear(ptr noundef nonnull %14) #33
  br label %sdslen.exit.thread

sdslen.exit.thread:                               ; preds = %13, %11, %37, %sdslen.exit, %9, %4
  %.0 = phi i32 [ 0, %4 ], [ 0, %9 ], [ -1, %sdslen.exit ], [ 0, %37 ], [ 0, %11 ], [ -1, %13 ]
  ret i32 %.0
}